target datalayout = "e-m:e-p270:32:32-p271:32:32-p272:64:64-i64:64-i128:128-f80:128-n8:16:32:64-S128"
target triple = "x86_64-pc-linux-gnu"

; Function Attrs: inlinehint nounwind uwtable
define internal i64 @PointerGetDatum(ptr noundef %0) #3 {
  %2 = alloca ptr, align 8
  store ptr %0, ptr %2, align 8
  %3 = load ptr, ptr %2, align 8
  %4 = ptrtoint ptr %3 to i64
  ret i64 %4
}

; Function Attrs: nounwind uwtable
define dso_local ptr @dsa_create_in_place_ext(ptr noundef %0, i64 noundef %1, i32 noundef %2, ptr noundef %3, i64 noundef %4, i64 noundef %5) #0 {
  %7 = alloca ptr, align 8
  %8 = alloca i64, align 8
  %9 = alloca i32, align 4
  %10 = alloca ptr, align 8
  %11 = alloca i64, align 8
  %12 = alloca i64, align 8
  %13 = alloca ptr, align 8
  store ptr %0, ptr %7, align 8
  store i64 %1, ptr %8, align 8
  store i32 %2, ptr %9, align 4
  store ptr %3, ptr %10, align 8
  store i64 %4, ptr %11, align 8
  store i64 %5, ptr %12, align 8
  call void @llvm.lifetime.start.p0(i64 8, ptr %13) #8
  %14 = load ptr, ptr %7, align 8
  %15 = load i64, ptr %8, align 8
  %16 = load i32, ptr %9, align 4
  %17 = load i64, ptr %11, align 8
  %18 = load i64, ptr %12, align 8
  %19 = call ptr @create_internal(ptr noundef %14, i64 noundef %15, i32 noundef %16, i32 noundef 0, ptr noundef null, i64 noundef %17, i64 noundef %18)
  store ptr %19, ptr %13, align 8
  %20 = load ptr, ptr %10, align 8
  %21 = icmp ne ptr %20, null
  br i1 %21, label %22, label %26

22:                                               ; preds = %6
  %23 = load ptr, ptr %10, align 8
  %24 = load ptr, ptr %7, align 8
  %25 = call i64 @PointerGetDatum(ptr noundef %24)
  call void @on_dsm_detach(ptr noundef %23, ptr noundef @dsa_on_dsm_detach_release_in_place, i64 noundef %25)
  br label %26

26:                                               ; preds = %22, %6
  %27 = load ptr, ptr %13, align 8
  call void @llvm.lifetime.end.p0(i64 8, ptr %13) #8
  ret ptr %27
}