; Function Attrs: nounwind uwtable
define dso_local noundef ptr @dsa_create_in_place_ext(ptr noundef %0, i64 noundef %1, i32 noundef %2, ptr noundef %3, i64 noundef %4, i64 noundef %5) local_unnamed_addr #0 {
  %7 = tail call fastcc ptr @create_internal(ptr noundef %0, i64 noundef %1, i32 noundef %2, i32 noundef 0, ptr noundef null, i64 noundef %4, i64 noundef %5)
  %.not = icmp eq ptr %3, null
  br i1 %.not, label %10, label %8

8:                                                ; preds = %6
  %9 = ptrtoint ptr %0 to i64
  tail call void @on_dsm_detach(ptr noundef nonnull %3, ptr noundef nonnull @dsa_on_dsm_detach_release_in_place, i64 noundef %9) #11
  br label %10

10:                                               ; preds = %8, %6
  ret ptr %7
}